; Function Attrs: nounwind uwtable
define internal noundef i32 @run_deblock_h(ptr readnone captures(none) %0, ptr noundef %1, ptr noundef readonly captures(none) %2) #0 {
  %4 = getelementptr inbounds nuw i8, ptr %1, i64 4580552
  %5 = load ptr, ptr %4, align 8, !tbaa !60
  %6 = getelementptr inbounds nuw i8, ptr %5, i64 21288
  %7 = load ptr, ptr %6, align 8, !tbaa !23
  %8 = getelementptr inbounds nuw i8, ptr %2, i64 20
  %9 = getelementptr inbounds nuw i8, ptr %2, i64 24
  %10 = getelementptr inbounds nuw i8, ptr %1, i64 4580544
  %11 = load ptr, ptr %10, align 16, !tbaa !68
  %12 = getelementptr inbounds nuw i8, ptr %11, i64 8
  %13 = load ptr, ptr %12, align 8, !tbaa !182
  %14 = getelementptr inbounds nuw i8, ptr %13, i64 2334
  %15 = load i8, ptr %14, align 2, !tbaa !183
  %.not = icmp eq i8 %15, 0
  br i1 %.not, label %16, label %26

16:                                               ; preds = %3
  %17 = load i32, ptr %9, align 8, !tbaa !83
  %18 = getelementptr inbounds nuw i8, ptr %7, i64 24
  %19 = load i32, ptr %18, align 8, !tbaa !97
  %20 = mul nsw i32 %19, %17
  %21 = load i32, ptr %8, align 4, !tbaa !82
  %22 = mul nsw i32 %21, %19
  %23 = getelementptr inbounds nuw i8, ptr %2, i64 28
  %24 = load i32, ptr %23, align 4, !tbaa !111
  tail call void @ff_vvc_decode_neighbour(ptr noundef nonnull %1, i32 noundef %22, i32 noundef %20, i32 noundef %21, i32 noundef %17, i32 noundef %24) #7
  %25 = load i32, ptr %23, align 4, !tbaa !111
  tail call void @ff_vvc_deblock_horizontal(ptr noundef nonnull %1, i32 noundef %22, i32 noundef %20, i32 noundef %25) #7
  br label %26

26:                                               ; preds = %16, %3
  %27 = getelementptr inbounds nuw i8, ptr %5, i64 1928
  %28 = load ptr, ptr %27, align 8, !tbaa !87
  %29 = load ptr, ptr %28, align 8, !tbaa !142
  %30 = getelementptr inbounds nuw i8, ptr %29, i64 16175
  %31 = load i8, ptr %30, align 1, !tbaa !185
  %.not23 = icmp eq i8 %31, 0
  br i1 %.not23, label %40, label %32

32:                                               ; preds = %26
  %33 = load i32, ptr %8, align 4, !tbaa !82
  %34 = load i32, ptr %9, align 8, !tbaa !83
  %35 = getelementptr inbounds nuw i8, ptr %7, i64 32
  %36 = load i32, ptr %35, align 8, !tbaa !95
  %37 = add nsw i32 %36, -1
  %38 = icmp eq i32 %34, %37
  %39 = zext i1 %38 to i32
  tail call void @ff_vvc_sao_copy_ctb_to_hv(ptr noundef nonnull %1, i32 noundef %33, i32 noundef %34, i32 noundef %39) #7
  br label %40

40:                                               ; preds = %32, %26
  ret i32 0
}